target datalayout = "e-m:e-p270:32:32-p271:32:32-p272:64:64-i64:64-i128:128-f80:128-n8:16:32:64-S128"
target triple = "x86_64-unknown-linux-gnu"

%struct.NICPeers = type { [1024 x ptr], i32 }
%struct.NetClientState = type { ptr, i32, %union.anon, ptr, ptr, ptr, ptr, [256 x i8], i8, ptr, i32, i8, i32, i32, i8, i8, i8, %union.anon.0 }
%union.anon = type { %struct.QTailQLink }
%struct.QTailQLink = type { ptr, ptr }
%union.anon.0 = type { %struct.QTailQLink }

@.str.7 = private unnamed_addr constant [1 x i8] zeroinitializer, align 1

; Function Attrs: nounwind sspstrong uwtable
define internal void @get_netdev(ptr noundef %obj, ptr noundef %v, ptr noundef %name, ptr noundef %opaque, ptr noundef %errp) #0 {
entry:
  %obj.addr = alloca ptr, align 8
  %v.addr = alloca ptr, align 8
  %name.addr = alloca ptr, align 8
  %opaque.addr = alloca ptr, align 8
  %errp.addr = alloca ptr, align 8
  %prop = alloca ptr, align 8
  %peers_ptr = alloca ptr, align 8
  %p = alloca ptr, align 8
  store ptr %obj, ptr %obj.addr, align 8
  store ptr %v, ptr %v.addr, align 8
  store ptr %name, ptr %name.addr, align 8
  store ptr %opaque, ptr %opaque.addr, align 8
  store ptr %errp, ptr %errp.addr, align 8
  %0 = load ptr, ptr %opaque.addr, align 8
  store ptr %0, ptr %prop, align 8
  %1 = load ptr, ptr %obj.addr, align 8
  %2 = load ptr, ptr %prop, align 8
  %call = call ptr @object_field_prop_ptr(ptr noundef %1, ptr noundef %2)
  store ptr %call, ptr %peers_ptr, align 8
  %3 = load ptr, ptr %peers_ptr, align 8
  %ncs = getelementptr inbounds %struct.NICPeers, ptr %3, i32 0, i32 0
  %arrayidx = getelementptr [1024 x ptr], ptr %ncs, i64 0, i64 0
  %4 = load ptr, ptr %arrayidx, align 8
  %tobool = icmp ne ptr %4, null
  br i1 %tobool, label %cond.true, label %cond.false

cond.true:                                        ; preds = %entry
  %5 = load ptr, ptr %peers_ptr, align 8
  %ncs1 = getelementptr inbounds %struct.NICPeers, ptr %5, i32 0, i32 0
  %arrayidx2 = getelementptr [1024 x ptr], ptr %ncs1, i64 0, i64 0
  %6 = load ptr, ptr %arrayidx2, align 8
  %name3 = getelementptr inbounds %struct.NetClientState, ptr %6, i32 0, i32 6
  %7 = load ptr, ptr %name3, align 8
  br label %cond.end

cond.false:                                       ; preds = %entry
  br label %cond.end

cond.end:                                         ; preds = %cond.false, %cond.true
  %cond = phi ptr [ %7, %cond.true ], [ @.str.7, %cond.false ]
  %call4 = call noalias ptr @g_strdup(ptr noundef %cond)
  store ptr %call4, ptr %p, align 8
  %8 = load ptr, ptr %v.addr, align 8
  %9 = load ptr, ptr %name.addr, align 8
  %10 = load ptr, ptr %errp.addr, align 8
  %call5 = call zeroext i1 @visit_type_str(ptr noundef %8, ptr noundef %9, ptr noundef %p, ptr noundef %10)
  %11 = load ptr, ptr %p, align 8
  call void @g_free(ptr noundef %11)
  ret void
}