; Function Attrs: nounwind sspstrong uwtable
define internal void @get_netdev(ptr noundef %obj, ptr noundef %v, ptr noundef %name, ptr noundef %opaque, ptr noundef %errp) #0 {
entry:
  %p = alloca ptr, align 8
  %call = tail call ptr @object_field_prop_ptr(ptr noundef %obj, ptr noundef %opaque) #10
  %0 = load ptr, ptr %call, align 8
  %tobool.not = icmp eq ptr %0, null
  br i1 %tobool.not, label %cond.end, label %cond.true

cond.true:                                        ; preds = %entry
  %name3 = getelementptr inbounds nuw i8, ptr %0, i64 56
  %1 = load ptr, ptr %name3, align 8
  br label %cond.end

cond.end:                                         ; preds = %entry, %cond.true
  %cond = phi ptr [ %1, %cond.true ], [ @.str.7, %entry ]
  %call4 = tail call noalias ptr @g_strdup(ptr noundef %cond) #10
  store ptr %call4, ptr %p, align 8
  %call5 = call zeroext i1 @visit_type_str(ptr noundef %v, ptr noundef %name, ptr noundef nonnull %p, ptr noundef %errp) #10
  %2 = load ptr, ptr %p, align 8
  call void @g_free(ptr noundef %2) #10
  ret void
}